target datalayout = "e-m:e-p270:32:32-p271:32:32-p272:64:64-i64:64-i128:128-f80:128-n8:16:32:64-S128"
target triple = "x86_64-pc-linux-gnu"

@.str = private unnamed_addr constant [124 x i8] c"generated/home/dtcxzyw/WorkSpace/Projects/compilers/llvm-opt-benchmark/bench/libquic/libquic/boringssl/crypto/rsa/padding.c\00", align 1

; Function Attrs: nounwind uwtable
define hidden i32 @RSA_padding_add_PKCS1_type_1(ptr noundef %0, i32 noundef %1, ptr noundef %2, i32 noundef %3) #0 {
  %5 = alloca i32, align 4
  %6 = alloca ptr, align 8
  %7 = alloca i32, align 4
  %8 = alloca ptr, align 8
  %9 = alloca i32, align 4
  %10 = alloca i32, align 4
  %11 = alloca i32, align 4
  %12 = alloca ptr, align 8
  store ptr %0, ptr %6, align 8, !tbaa !6
  store i32 %1, ptr %7, align 4, !tbaa !11
  store ptr %2, ptr %8, align 8, !tbaa !6
  store i32 %3, ptr %9, align 4, !tbaa !11
  call void @llvm.lifetime.start.p0(i64 4, ptr %10) #9
  %13 = load i32, ptr %7, align 4, !tbaa !11
  %14 = icmp ult i32 %13, 11
  br i1 %14, label %15, label %16

15:                                               ; preds = %4
  call void @ERR_put_error(i32 noundef 4, i32 noundef 0, i32 noundef 126, ptr noundef @.str, i32 noundef 79)
  store i32 0, ptr %5, align 4
  store i32 1, ptr %11, align 4
  br label %45

16:                                               ; preds = %4
  %17 = load i32, ptr %9, align 4, !tbaa !11
  %18 = load i32, ptr %7, align 4, !tbaa !11
  %19 = sub i32 %18, 11
  %20 = icmp ugt i32 %17, %19
  br i1 %20, label %21, label %22

21:                                               ; preds = %16
  call void @ERR_put_error(i32 noundef 4, i32 noundef 0, i32 noundef 114, ptr noundef @.str, i32 noundef 84)
  store i32 0, ptr %5, align 4
  store i32 1, ptr %11, align 4
  br label %45

22:                                               ; preds = %16
  call void @llvm.lifetime.start.p0(i64 8, ptr %12) #9
  %23 = load ptr, ptr %6, align 8, !tbaa !6
  store ptr %23, ptr %12, align 8, !tbaa !6
  %24 = load ptr, ptr %12, align 8, !tbaa !6
  %25 = getelementptr inbounds nuw i8, ptr %24, i32 1
  store ptr %25, ptr %12, align 8, !tbaa !6
  store i8 0, ptr %24, align 1, !tbaa !13
  %26 = load ptr, ptr %12, align 8, !tbaa !6
  %27 = getelementptr inbounds nuw i8, ptr %26, i32 1
  store ptr %27, ptr %12, align 8, !tbaa !6
  store i8 1, ptr %26, align 1, !tbaa !13
  %28 = load i32, ptr %7, align 4, !tbaa !11
  %29 = sub i32 %28, 3
  %30 = load i32, ptr %9, align 4, !tbaa !11
  %31 = sub i32 %29, %30
  store i32 %31, ptr %10, align 4, !tbaa !11
  %32 = load ptr, ptr %12, align 8, !tbaa !6
  %33 = load i32, ptr %10, align 4, !tbaa !11
  %34 = zext i32 %33 to i64
  call void @llvm.memset.p0.i64(ptr align 1 %32, i8 -1, i64 %34, i1 false)
  %35 = load i32, ptr %10, align 4, !tbaa !11
  %36 = load ptr, ptr %12, align 8, !tbaa !6
  %37 = zext i32 %35 to i64
  %38 = getelementptr inbounds nuw i8, ptr %36, i64 %37
  store ptr %38, ptr %12, align 8, !tbaa !6
  %39 = load ptr, ptr %12, align 8, !tbaa !6
  %40 = getelementptr inbounds nuw i8, ptr %39, i32 1
  store ptr %40, ptr %12, align 8, !tbaa !6
  store i8 0, ptr %39, align 1, !tbaa !13
  %41 = load ptr, ptr %12, align 8, !tbaa !6
  %42 = load ptr, ptr %8, align 8, !tbaa !6
  %43 = load i32, ptr %9, align 4, !tbaa !11
  %44 = zext i32 %43 to i64
  call void @llvm.memcpy.p0.p0.i64(ptr align 1 %41, ptr align 1 %42, i64 %44, i1 false)
  store i32 1, ptr %5, align 4
  store i32 1, ptr %11, align 4
  call void @llvm.lifetime.end.p0(i64 8, ptr %12) #9
  br label %45

45:                                               ; preds = %22, %21, %15
  call void @llvm.lifetime.end.p0(i64 4, ptr %10) #9
  %46 = load i32, ptr %5, align 4
  ret i32 %46
}