; Function Attrs: nounwind uwtable
define hidden range(i32 0, 2) i32 @RSA_padding_add_PKCS1_type_1(ptr noundef writeonly captures(none) %0, i32 noundef %1, ptr noundef readonly captures(none) %2, i32 noundef %3) local_unnamed_addr #0 {
  %5 = icmp ult i32 %1, 11
  br i1 %5, label %6, label %7

6:                                                ; preds = %4
  tail call void @ERR_put_error(i32 noundef 4, i32 noundef 0, i32 noundef 126, ptr noundef nonnull @.str, i32 noundef 79) #8
  br label %20

7:                                                ; preds = %4
  %8 = add i32 %1, -11
  %9 = icmp ugt i32 %3, %8
  br i1 %9, label %10, label %11

10:                                               ; preds = %7
  tail call void @ERR_put_error(i32 noundef 4, i32 noundef 0, i32 noundef 114, ptr noundef nonnull @.str, i32 noundef 84) #8
  br label %20

11:                                               ; preds = %7
  %12 = getelementptr inbounds nuw i8, ptr %0, i64 1
  store i8 0, ptr %0, align 1, !tbaa !6
  %13 = getelementptr inbounds nuw i8, ptr %0, i64 2
  store i8 1, ptr %12, align 1, !tbaa !6
  %14 = add i32 %1, -3
  %15 = sub i32 %14, %3
  %16 = zext i32 %15 to i64
  tail call void @llvm.memset.p0.i64(ptr nonnull align 1 %13, i8 -1, i64 %16, i1 false)
  %17 = getelementptr inbounds nuw i8, ptr %13, i64 %16
  %18 = getelementptr inbounds nuw i8, ptr %17, i64 1
  store i8 0, ptr %17, align 1, !tbaa !6
  %19 = zext i32 %3 to i64
  tail call void @llvm.memcpy.p0.p0.i64(ptr nonnull align 1 %18, ptr align 1 %2, i64 %19, i1 false)
  br label %20

20:                                               ; preds = %11, %10, %6
  %.0 = phi i32 [ 0, %6 ], [ 0, %10 ], [ 1, %11 ]
  ret i32 %.0
}